target datalayout = "e-m:e-p270:32:32-p271:32:32-p272:64:64-i64:64-i128:128-f80:128-n8:16:32:64-S128"
target triple = "x86_64-pc-linux-gnu"

%struct.AVChannelLayout = type { i32, i32, %union.anon.1, ptr }
%union.anon.1 = type { i64 }
%struct.AVFilterContext = type { ptr, ptr, ptr, ptr, ptr, i32, ptr, ptr, i32, ptr, ptr, i32, i32, ptr, ptr, ptr, ptr, i32, ptr, i32, i32 }
%struct.AudioPhaseMeterContext = type { ptr, ptr, ptr, i64, i32, i32, i32, i32, %struct.AVRational, [4 x i32], ptr, [4 x i8], i32, i32, i32, i32, i32, i32, float, float, float, %struct.AVRational, i64, i64, [2 x i64], [2 x i64] }
%struct.AVRational = type { i32, i32 }
%struct.AVFilterFormatsConfig = type { ptr, ptr, ptr, ptr, ptr }

@query_formats.sample_fmts = internal constant [2 x i32] [i32 3, i32 -1], align 4
@query_formats.pix_fmts = internal constant [2 x i32] [i32 26, i32 -1], align 4
@query_formats.layouts = internal constant [2 x %struct.AVChannelLayout] [%struct.AVChannelLayout { i32 1, i32 2, %union.anon.1 { i64 3 }, ptr null }, %struct.AVChannelLayout zeroinitializer], align 16

; Function Attrs: nounwind uwtable
define internal i32 @query_formats(ptr noundef %0, ptr noundef %1, ptr noundef %2) #1 {
  %4 = alloca i32, align 4
  %5 = alloca ptr, align 8
  %6 = alloca ptr, align 8
  %7 = alloca ptr, align 8
  %8 = alloca ptr, align 8
  %9 = alloca ptr, align 8
  %10 = alloca i32, align 4
  %11 = alloca i32, align 4
  store ptr %0, ptr %5, align 8, !tbaa !4
  store ptr %1, ptr %6, align 8, !tbaa !43
  store ptr %2, ptr %7, align 8, !tbaa !43
  call void @llvm.lifetime.start.p0(i64 8, ptr %8) #12
  %12 = load ptr, ptr %5, align 8, !tbaa !4
  %13 = getelementptr inbounds nuw %struct.AVFilterContext, ptr %12, i32 0, i32 9
  %14 = load ptr, ptr %13, align 8, !tbaa !9
  store ptr %14, ptr %8, align 8, !tbaa !22
  call void @llvm.lifetime.start.p0(i64 8, ptr %9) #12
  store ptr null, ptr %9, align 8, !tbaa !45
  call void @llvm.lifetime.start.p0(i64 4, ptr %10) #12
  %15 = call ptr @ff_make_format_list(ptr noundef @query_formats.sample_fmts)
  store ptr %15, ptr %9, align 8, !tbaa !45
  %16 = load ptr, ptr %9, align 8, !tbaa !45
  %17 = load ptr, ptr %6, align 8, !tbaa !43
  %18 = getelementptr inbounds ptr, ptr %17, i64 0
  %19 = load ptr, ptr %18, align 8, !tbaa !47
  %20 = getelementptr inbounds nuw %struct.AVFilterFormatsConfig, ptr %19, i32 0, i32 0
  %21 = call i32 @ff_formats_ref(ptr noundef %16, ptr noundef %20)
  store i32 %21, ptr %10, align 4, !tbaa !29
  %22 = icmp slt i32 %21, 0
  br i1 %22, label %31, label %23

23:                                               ; preds = %3
  %24 = load ptr, ptr %9, align 8, !tbaa !45
  %25 = load ptr, ptr %7, align 8, !tbaa !43
  %26 = getelementptr inbounds ptr, ptr %25, i64 0
  %27 = load ptr, ptr %26, align 8, !tbaa !47
  %28 = getelementptr inbounds nuw %struct.AVFilterFormatsConfig, ptr %27, i32 0, i32 0
  %29 = call i32 @ff_formats_ref(ptr noundef %24, ptr noundef %28)
  store i32 %29, ptr %10, align 4, !tbaa !29
  %30 = icmp slt i32 %29, 0
  br i1 %30, label %31, label %33

31:                                               ; preds = %23, %3
  %32 = load i32, ptr %10, align 4, !tbaa !29
  store i32 %32, ptr %4, align 4
  store i32 1, ptr %11, align 4
  br label %60

33:                                               ; preds = %23
  %34 = load ptr, ptr %5, align 8, !tbaa !4
  %35 = load ptr, ptr %6, align 8, !tbaa !43
  %36 = load ptr, ptr %7, align 8, !tbaa !43
  %37 = call i32 @ff_set_common_channel_layouts_from_list2(ptr noundef %34, ptr noundef %35, ptr noundef %36, ptr noundef @query_formats.layouts)
  store i32 %37, ptr %10, align 4, !tbaa !29
  %38 = load i32, ptr %10, align 4, !tbaa !29
  %39 = icmp slt i32 %38, 0
  br i1 %39, label %40, label %42

40:                                               ; preds = %33
  %41 = load i32, ptr %10, align 4, !tbaa !29
  store i32 %41, ptr %4, align 4
  store i32 1, ptr %11, align 4
  br label %60

42:                                               ; preds = %33
  %43 = load ptr, ptr %8, align 8, !tbaa !22
  %44 = getelementptr inbounds nuw %struct.AudioPhaseMeterContext, ptr %43, i32 0, i32 4
  %45 = load i32, ptr %44, align 8, !tbaa !32
  %46 = icmp ne i32 %45, 0
  br i1 %46, label %47, label %59

47:                                               ; preds = %42
  %48 = call ptr @ff_make_format_list(ptr noundef @query_formats.pix_fmts)
  store ptr %48, ptr %9, align 8, !tbaa !45
  %49 = load ptr, ptr %9, align 8, !tbaa !45
  %50 = load ptr, ptr %7, align 8, !tbaa !43
  %51 = getelementptr inbounds ptr, ptr %50, i64 1
  %52 = load ptr, ptr %51, align 8, !tbaa !47
  %53 = getelementptr inbounds nuw %struct.AVFilterFormatsConfig, ptr %52, i32 0, i32 0
  %54 = call i32 @ff_formats_ref(ptr noundef %49, ptr noundef %53)
  store i32 %54, ptr %10, align 4, !tbaa !29
  %55 = icmp slt i32 %54, 0
  br i1 %55, label %56, label %58

56:                                               ; preds = %47
  %57 = load i32, ptr %10, align 4, !tbaa !29
  store i32 %57, ptr %4, align 4
  store i32 1, ptr %11, align 4
  br label %60

58:                                               ; preds = %47
  br label %59

59:                                               ; preds = %58, %42
  store i32 0, ptr %4, align 4
  store i32 1, ptr %11, align 4
  br label %60

60:                                               ; preds = %59, %56, %40, %31
  call void @llvm.lifetime.end.p0(i64 4, ptr %10) #12
  call void @llvm.lifetime.end.p0(i64 8, ptr %9) #12
  call void @llvm.lifetime.end.p0(i64 8, ptr %8) #12
  %61 = load i32, ptr %4, align 4
  ret i32 %61
}