; Function Attrs: nounwind uwtable
define internal range(i32 -2147483648, 1) i32 @query_formats(ptr noundef %0, ptr noundef %1, ptr noundef %2) #1 {
  %4 = getelementptr inbounds nuw i8, ptr %0, i64 72
  %5 = load ptr, ptr %4, align 8, !tbaa !4
  %6 = tail call ptr @ff_make_format_list(ptr noundef nonnull @query_formats.sample_fmts) #13
  %7 = load ptr, ptr %1, align 8, !tbaa !34
  %8 = tail call i32 @ff_formats_ref(ptr noundef %6, ptr noundef %7) #13
  %9 = icmp slt i32 %8, 0
  br i1 %9, label %27, label %10

10:                                               ; preds = %3
  %11 = load ptr, ptr %2, align 8, !tbaa !34
  %12 = tail call i32 @ff_formats_ref(ptr noundef %6, ptr noundef %11) #13
  %13 = icmp slt i32 %12, 0
  br i1 %13, label %27, label %14

14:                                               ; preds = %10
  %15 = tail call i32 @ff_set_common_channel_layouts_from_list2(ptr noundef nonnull %0, ptr noundef nonnull %1, ptr noundef nonnull %2, ptr noundef nonnull @query_formats.layouts) #13
  %16 = icmp slt i32 %15, 0
  br i1 %16, label %27, label %17

17:                                               ; preds = %14
  %18 = getelementptr inbounds nuw i8, ptr %5, i64 32
  %19 = load i32, ptr %18, align 8, !tbaa !22
  %.not = icmp eq i32 %19, 0
  br i1 %.not, label %26, label %20

20:                                               ; preds = %17
  %21 = tail call ptr @ff_make_format_list(ptr noundef nonnull @query_formats.pix_fmts) #13
  %22 = getelementptr inbounds nuw i8, ptr %2, i64 8
  %23 = load ptr, ptr %22, align 8, !tbaa !34
  %24 = tail call i32 @ff_formats_ref(ptr noundef %21, ptr noundef %23) #13
  %25 = icmp slt i32 %24, 0
  br i1 %25, label %27, label %26

26:                                               ; preds = %20, %17
  br label %27

27:                                               ; preds = %20, %14, %3, %10, %26
  %.015 = phi i32 [ 0, %26 ], [ %8, %3 ], [ %12, %10 ], [ %15, %14 ], [ %24, %20 ]
  ret i32 %.015
}